target datalayout = "e-m:e-p270:32:32-p271:32:32-p272:64:64-i64:64-i128:128-f80:128-n8:16:32:64-S128"
target triple = "x86_64-pc-linux-gnu"

%struct.AVFilterContext = type { ptr, ptr, ptr, ptr, ptr, i32, ptr, ptr, i32, ptr, ptr, i32, i32, ptr, ptr, ptr, ptr, i32, ptr, i32, i32 }
%struct.SpectrumSynthContext = type { ptr, i32, i32, i32, i32, i32, float, i32, ptr, ptr, ptr, ptr, ptr, ptr, i32, i32, i32, i32, i32, i32, i32, i32, i64, float, ptr, ptr }
%struct.AVChannelLayout = type { i32, i32, %union.anon.1, ptr }
%union.anon.1 = type { i64 }
%struct.AVFilterFormatsConfig = type { ptr, ptr, ptr, ptr, ptr }

@query_formats.sample_fmts = internal constant [2 x i32] [i32 8, i32 -1], align 4
@query_formats.pix_fmts = internal constant [6 x i32] [i32 8, i32 30, i32 5, i32 14, i32 49, i32 -1], align 16
@__const.query_formats.sample_rates = private unnamed_addr constant [2 x i32] [i32 48000, i32 -1], align 4

; Function Attrs: nounwind uwtable
define internal i32 @query_formats(ptr noundef %0, ptr noundef %1, ptr noundef %2) #1 {
  %4 = alloca i32, align 4
  %5 = alloca ptr, align 8
  %6 = alloca ptr, align 8
  %7 = alloca ptr, align 8
  %8 = alloca ptr, align 8
  %9 = alloca ptr, align 8
  %10 = alloca ptr, align 8
  %11 = alloca i32, align 4
  %12 = alloca [2 x i32], align 4
  %13 = alloca %struct.AVChannelLayout, align 8
  %14 = alloca i32, align 4
  store ptr %0, ptr %5, align 8, !tbaa !4
  store ptr %1, ptr %6, align 8, !tbaa !38
  store ptr %2, ptr %7, align 8, !tbaa !38
  call void @llvm.lifetime.start.p0(i64 8, ptr %8) #10
  %15 = load ptr, ptr %5, align 8, !tbaa !4
  %16 = getelementptr inbounds nuw %struct.AVFilterContext, ptr %15, i32 0, i32 9
  %17 = load ptr, ptr %16, align 8, !tbaa !9
  store ptr %17, ptr %8, align 8, !tbaa !22
  call void @llvm.lifetime.start.p0(i64 8, ptr %9) #10
  store ptr null, ptr %9, align 8, !tbaa !40
  call void @llvm.lifetime.start.p0(i64 8, ptr %10) #10
  store ptr null, ptr %10, align 8, !tbaa !42
  call void @llvm.lifetime.start.p0(i64 4, ptr %11) #10
  call void @llvm.lifetime.start.p0(i64 8, ptr %12) #10
  call void @llvm.memcpy.p0.p0.i64(ptr align 4 %12, ptr align 4 @__const.query_formats.sample_rates, i64 8, i1 false)
  %18 = call ptr @ff_make_format_list(ptr noundef @query_formats.sample_fmts)
  store ptr %18, ptr %9, align 8, !tbaa !40
  %19 = load ptr, ptr %9, align 8, !tbaa !40
  %20 = load ptr, ptr %7, align 8, !tbaa !38
  %21 = getelementptr inbounds ptr, ptr %20, i64 0
  %22 = load ptr, ptr %21, align 8, !tbaa !44
  %23 = getelementptr inbounds nuw %struct.AVFilterFormatsConfig, ptr %22, i32 0, i32 0
  %24 = call i32 @ff_formats_ref(ptr noundef %19, ptr noundef %23)
  store i32 %24, ptr %11, align 4, !tbaa !32
  %25 = icmp slt i32 %24, 0
  br i1 %25, label %44, label %26

26:                                               ; preds = %3
  %27 = getelementptr inbounds nuw %struct.AVChannelLayout, ptr %13, i32 0, i32 0
  store i32 0, ptr %27, align 8, !tbaa !46
  %28 = getelementptr inbounds nuw %struct.AVChannelLayout, ptr %13, i32 0, i32 1
  %29 = load ptr, ptr %8, align 8, !tbaa !22
  %30 = getelementptr inbounds nuw %struct.SpectrumSynthContext, ptr %29, i32 0, i32 2
  %31 = load i32, ptr %30, align 4, !tbaa !33
  store i32 %31, ptr %28, align 4, !tbaa !48
  %32 = getelementptr inbounds nuw %struct.AVChannelLayout, ptr %13, i32 0, i32 2
  call void @llvm.memset.p0.i64(ptr align 8 %32, i8 0, i64 8, i1 false)
  %33 = getelementptr inbounds nuw %struct.AVChannelLayout, ptr %13, i32 0, i32 3
  store ptr null, ptr %33, align 8, !tbaa !49
  %34 = call i32 @ff_add_channel_layout(ptr noundef %10, ptr noundef %13)
  store i32 %34, ptr %11, align 4, !tbaa !32
  %35 = icmp slt i32 %34, 0
  br i1 %35, label %44, label %36

36:                                               ; preds = %26
  %37 = load ptr, ptr %10, align 8, !tbaa !42
  %38 = load ptr, ptr %7, align 8, !tbaa !38
  %39 = getelementptr inbounds ptr, ptr %38, i64 0
  %40 = load ptr, ptr %39, align 8, !tbaa !44
  %41 = getelementptr inbounds nuw %struct.AVFilterFormatsConfig, ptr %40, i32 0, i32 2
  %42 = call i32 @ff_channel_layouts_ref(ptr noundef %37, ptr noundef %41)
  store i32 %42, ptr %11, align 4, !tbaa !32
  %43 = icmp slt i32 %42, 0
  br i1 %43, label %44, label %46

44:                                               ; preds = %36, %26, %3
  %45 = load i32, ptr %11, align 4, !tbaa !32
  store i32 %45, ptr %4, align 4
  store i32 1, ptr %14, align 4
  br label %97

46:                                               ; preds = %36
  %47 = load ptr, ptr %8, align 8, !tbaa !22
  %48 = getelementptr inbounds nuw %struct.SpectrumSynthContext, ptr %47, i32 0, i32 1
  %49 = load i32, ptr %48, align 8, !tbaa !50
  %50 = getelementptr inbounds [2 x i32], ptr %12, i64 0, i64 0
  store i32 %49, ptr %50, align 4, !tbaa !32
  %51 = getelementptr inbounds [2 x i32], ptr %12, i64 0, i64 0
  %52 = call ptr @ff_make_format_list(ptr noundef %51)
  store ptr %52, ptr %9, align 8, !tbaa !40
  %53 = load ptr, ptr %9, align 8, !tbaa !40
  %54 = icmp ne ptr %53, null
  br i1 %54, label %56, label %55

55:                                               ; preds = %46
  store i32 -12, ptr %4, align 4
  store i32 1, ptr %14, align 4
  br label %97

56:                                               ; preds = %46
  %57 = load ptr, ptr %9, align 8, !tbaa !40
  %58 = load ptr, ptr %7, align 8, !tbaa !38
  %59 = getelementptr inbounds ptr, ptr %58, i64 0
  %60 = load ptr, ptr %59, align 8, !tbaa !44
  %61 = getelementptr inbounds nuw %struct.AVFilterFormatsConfig, ptr %60, i32 0, i32 1
  %62 = call i32 @ff_formats_ref(ptr noundef %57, ptr noundef %61)
  store i32 %62, ptr %11, align 4, !tbaa !32
  %63 = icmp slt i32 %62, 0
  br i1 %63, label %64, label %66

64:                                               ; preds = %56
  %65 = load i32, ptr %11, align 4, !tbaa !32
  store i32 %65, ptr %4, align 4
  store i32 1, ptr %14, align 4
  br label %97

66:                                               ; preds = %56
  %67 = call ptr @ff_make_format_list(ptr noundef @query_formats.pix_fmts)
  store ptr %67, ptr %9, align 8, !tbaa !40
  %68 = load ptr, ptr %9, align 8, !tbaa !40
  %69 = icmp ne ptr %68, null
  br i1 %69, label %71, label %70

70:                                               ; preds = %66
  store i32 -12, ptr %4, align 4
  store i32 1, ptr %14, align 4
  br label %97

71:                                               ; preds = %66
  %72 = load ptr, ptr %9, align 8, !tbaa !40
  %73 = load ptr, ptr %6, align 8, !tbaa !38
  %74 = getelementptr inbounds ptr, ptr %73, i64 0
  %75 = load ptr, ptr %74, align 8, !tbaa !44
  %76 = getelementptr inbounds nuw %struct.AVFilterFormatsConfig, ptr %75, i32 0, i32 0
  %77 = call i32 @ff_formats_ref(ptr noundef %72, ptr noundef %76)
  store i32 %77, ptr %11, align 4, !tbaa !32
  %78 = icmp slt i32 %77, 0
  br i1 %78, label %79, label %81

79:                                               ; preds = %71
  %80 = load i32, ptr %11, align 4, !tbaa !32
  store i32 %80, ptr %4, align 4
  store i32 1, ptr %14, align 4
  br label %97

81:                                               ; preds = %71
  %82 = call ptr @ff_make_format_list(ptr noundef @query_formats.pix_fmts)
  store ptr %82, ptr %9, align 8, !tbaa !40
  %83 = load ptr, ptr %9, align 8, !tbaa !40
  %84 = icmp ne ptr %83, null
  br i1 %84, label %86, label %85

85:                                               ; preds = %81
  store i32 -12, ptr %4, align 4
  store i32 1, ptr %14, align 4
  br label %97

86:                                               ; preds = %81
  %87 = load ptr, ptr %9, align 8, !tbaa !40
  %88 = load ptr, ptr %6, align 8, !tbaa !38
  %89 = getelementptr inbounds ptr, ptr %88, i64 1
  %90 = load ptr, ptr %89, align 8, !tbaa !44
  %91 = getelementptr inbounds nuw %struct.AVFilterFormatsConfig, ptr %90, i32 0, i32 0
  %92 = call i32 @ff_formats_ref(ptr noundef %87, ptr noundef %91)
  store i32 %92, ptr %11, align 4, !tbaa !32
  %93 = icmp slt i32 %92, 0
  br i1 %93, label %94, label %96

94:                                               ; preds = %86
  %95 = load i32, ptr %11, align 4, !tbaa !32
  store i32 %95, ptr %4, align 4
  store i32 1, ptr %14, align 4
  br label %97

96:                                               ; preds = %86
  store i32 0, ptr %4, align 4
  store i32 1, ptr %14, align 4
  br label %97

97:                                               ; preds = %96, %94, %85, %79, %70, %64, %55, %44
  call void @llvm.lifetime.end.p0(i64 8, ptr %12) #10
  call void @llvm.lifetime.end.p0(i64 4, ptr %11) #10
  call void @llvm.lifetime.end.p0(i64 8, ptr %10) #10
  call void @llvm.lifetime.end.p0(i64 8, ptr %9) #10
  call void @llvm.lifetime.end.p0(i64 8, ptr %8) #10
  %98 = load i32, ptr %4, align 4
  ret i32 %98
}