; Function Attrs: nounwind uwtable
define internal range(i32 -2147483648, 1) i32 @query_formats(ptr noundef readonly captures(none) %0, ptr noundef readonly captures(none) %1, ptr noundef readonly captures(none) %2) #1 {
  %4 = alloca ptr, align 8
  %5 = alloca [2 x i32], align 8
  %6 = alloca %struct.AVChannelLayout, align 8
  %7 = getelementptr inbounds nuw i8, ptr %0, i64 72
  %8 = load ptr, ptr %7, align 8, !tbaa !4
  call void @llvm.lifetime.start.p0(i64 8, ptr nonnull %4) #10
  store ptr null, ptr %4, align 8, !tbaa !33
  call void @llvm.lifetime.start.p0(i64 8, ptr nonnull %5) #10
  store i64 -4294919296, ptr %5, align 8
  %9 = tail call ptr @ff_make_format_list(ptr noundef nonnull @query_formats.sample_fmts) #10
  %10 = load ptr, ptr %2, align 8, !tbaa !35
  %11 = tail call i32 @ff_formats_ref(ptr noundef %9, ptr noundef %10) #10
  %12 = icmp slt i32 %11, 0
  br i1 %12, label %47, label %13

13:                                               ; preds = %3
  store i32 0, ptr %6, align 8, !tbaa !37
  %14 = getelementptr inbounds nuw i8, ptr %6, i64 4
  %15 = getelementptr inbounds nuw i8, ptr %8, i64 12
  %16 = load i32, ptr %15, align 4, !tbaa !28
  store i32 %16, ptr %14, align 4, !tbaa !39
  %17 = getelementptr inbounds nuw i8, ptr %6, i64 8
  call void @llvm.memset.p0.i64(ptr noundef nonnull align 8 dereferenceable(16) %17, i8 0, i64 16, i1 false)
  %18 = call i32 @ff_add_channel_layout(ptr noundef nonnull %4, ptr noundef nonnull %6) #10
  %19 = icmp slt i32 %18, 0
  br i1 %19, label %47, label %20

20:                                               ; preds = %13
  %21 = load ptr, ptr %4, align 8, !tbaa !33
  %22 = load ptr, ptr %2, align 8, !tbaa !35
  %23 = getelementptr inbounds nuw i8, ptr %22, i64 16
  %24 = call i32 @ff_channel_layouts_ref(ptr noundef %21, ptr noundef nonnull %23) #10
  %25 = icmp slt i32 %24, 0
  br i1 %25, label %47, label %26

26:                                               ; preds = %20
  %27 = getelementptr inbounds nuw i8, ptr %8, i64 8
  %28 = load i32, ptr %27, align 8, !tbaa !40
  store i32 %28, ptr %5, align 8, !tbaa !41
  %29 = call ptr @ff_make_format_list(ptr noundef nonnull %5) #10
  %.not = icmp eq ptr %29, null
  br i1 %.not, label %47, label %30

30:                                               ; preds = %26
  %31 = load ptr, ptr %2, align 8, !tbaa !35
  %32 = getelementptr inbounds nuw i8, ptr %31, i64 8
  %33 = call i32 @ff_formats_ref(ptr noundef nonnull %29, ptr noundef nonnull %32) #10
  %34 = icmp slt i32 %33, 0
  br i1 %34, label %47, label %35

35:                                               ; preds = %30
  %36 = call ptr @ff_make_format_list(ptr noundef nonnull @query_formats.pix_fmts) #10
  %.not29 = icmp eq ptr %36, null
  br i1 %.not29, label %47, label %37

37:                                               ; preds = %35
  %38 = load ptr, ptr %1, align 8, !tbaa !35
  %39 = call i32 @ff_formats_ref(ptr noundef nonnull %36, ptr noundef %38) #10
  %40 = icmp slt i32 %39, 0
  br i1 %40, label %47, label %41

41:                                               ; preds = %37
  %42 = call ptr @ff_make_format_list(ptr noundef nonnull @query_formats.pix_fmts) #10
  %.not30 = icmp eq ptr %42, null
  br i1 %.not30, label %47, label %43

43:                                               ; preds = %41
  %44 = getelementptr inbounds nuw i8, ptr %1, i64 8
  %45 = load ptr, ptr %44, align 8, !tbaa !35
  %46 = call i32 @ff_formats_ref(ptr noundef nonnull %42, ptr noundef %45) #10
  %. = call i32 @llvm.smin.i32(i32 %46, i32 0)
  br label %47

47:                                               ; preds = %43, %41, %37, %35, %30, %26, %3, %13, %20
  %.019 = phi i32 [ %11, %3 ], [ %18, %13 ], [ %24, %20 ], [ -12, %26 ], [ %33, %30 ], [ -12, %35 ], [ %39, %37 ], [ -12, %41 ], [ %., %43 ]
  call void @llvm.lifetime.end.p0(i64 8, ptr nonnull %5) #10
  call void @llvm.lifetime.end.p0(i64 8, ptr nonnull %4) #10
  ret i32 %.019
}